; Function Attrs: nounwind uwtable
define internal fastcc ptr @_init_l_Lean_Elab_Command_initFn____x40_Lean_Elab_MutualInductive___hyg_85____closed__6() unnamed_addr #1 {
  %1 = load ptr, ptr @l_Lean_Elab_Command_initFn____x40_Lean_Elab_MutualInductive___hyg_5____closed__4, align 8, !tbaa !12
  %2 = load ptr, ptr @l_Lean_Elab_Command_initFn____x40_Lean_Elab_MutualInductive___hyg_5____closed__1, align 8, !tbaa !12
  %3 = load ptr, ptr @l_Lean_Elab_Command_initFn____x40_Lean_Elab_MutualInductive___hyg_5____closed__7, align 8, !tbaa !12
  %4 = load ptr, ptr @l_Lean_Elab_Command_initFn____x40_Lean_Elab_MutualInductive___hyg_85____closed__1, align 8, !tbaa !12
  %5 = load ptr, ptr @l_Lean_Elab_Command_initFn____x40_Lean_Elab_MutualInductive___hyg_85____closed__2, align 8, !tbaa !12
  %6 = tail call ptr @l_Lean_Name_mkStr5(ptr noundef %1, ptr noundef %2, ptr noundef %3, ptr noundef %4, ptr noundef %5) #5
  ret ptr %6
}